; Function Attrs: mustprogress nofree norecurse nosync nounwind willreturn memory(write, argmem: readwrite, inaccessiblemem: none) uwtable
define void @_ZN4LIEF5MachO9FatBinary20release_all_binariesEv(ptr nocapture noundef nonnull readonly align 8 dereferenceable(32) %0) local_unnamed_addr #9 align 2 {
  %2 = getelementptr inbounds i8, ptr %0, i64 8
  %3 = load ptr, ptr %2, align 8
  %4 = getelementptr inbounds i8, ptr %0, i64 16
  %5 = load ptr, ptr %4, align 8
  %.not7 = icmp eq ptr %3, %5
  br i1 %.not7, label %._crit_edge, label %.lr.ph.preheader

.lr.ph.preheader:                                 ; preds = %1
  %6 = ptrtoint ptr %5 to i64
  %7 = ptrtoint ptr %3 to i64
  %8 = add i64 %6, -8
  %9 = sub i64 %8, %7
  %10 = and i64 %9, -8
  %11 = add i64 %10, 8
  tail call void @llvm.memset.p0.i64(ptr align 8 %3, i8 0, i64 %11, i1 false)
  br label %._crit_edge

._crit_edge:                                      ; preds = %.lr.ph.preheader, %1
  ret void
}